target datalayout = "e-m:e-p270:32:32-p271:32:32-p272:64:64-i64:64-i128:128-f80:128-n8:16:32:64-S128"
target triple = "x86_64-unknown-linux-gnu"

%"class.grpc_core::RefCountedPtr.0" = type { ptr }
%"class.grpc_core::RefCountedPtr.1" = type { ptr }
%"class.std::basic_string_view" = type { i64, ptr }
%"class.(anonymous namespace)::grpc_fake_channel_security_connector" = type { %class.grpc_channel_security_connector, ptr, %"class.std::optional", i8, [7 x i8], %"class.std::optional" }
%class.grpc_channel_security_connector = type { %class.grpc_security_connector, %"class.grpc_core::RefCountedPtr.0", %"class.grpc_core::RefCountedPtr.1", %"class.std::unique_ptr" }
%class.grpc_security_connector = type { %"class.grpc_core::RefCounted", %"class.std::basic_string_view" }
%"class.grpc_core::RefCounted" = type { %"class.grpc_core::PolymorphicRefCount", %"class.grpc_core::RefCount" }
%"class.grpc_core::PolymorphicRefCount" = type { ptr }
%"class.grpc_core::RefCount" = type { %"struct.std::atomic" }
%"struct.std::atomic" = type { %"struct.std::__atomic_base" }
%"struct.std::__atomic_base" = type { i64 }
%"class.std::unique_ptr" = type { %"struct.std::__uniq_ptr_data" }
%"struct.std::__uniq_ptr_data" = type { %"class.std::__uniq_ptr_impl" }
%"class.std::__uniq_ptr_impl" = type { %"class.std::tuple" }
%"class.std::tuple" = type { %"struct.std::_Tuple_impl" }
%"struct.std::_Tuple_impl" = type { %"struct.std::_Head_base.8" }
%"struct.std::_Head_base.8" = type { ptr }
%"class.std::optional" = type { %"struct.std::_Optional_base" }
%"struct.std::_Optional_base" = type { %"struct.std::_Optional_payload" }
%"struct.std::_Optional_payload" = type { %"struct.std::_Optional_payload.base", [7 x i8] }
%"struct.std::_Optional_payload.base" = type { %"struct.std::_Optional_payload_base.base" }
%"struct.std::_Optional_payload_base.base" = type <{ %"union.std::_Optional_payload_base<std::__cxx11::basic_string<char>>::_Storage", i8 }>
%"union.std::_Optional_payload_base<std::__cxx11::basic_string<char>>::_Storage" = type { %"class.std::__cxx11::basic_string" }
%"class.std::__cxx11::basic_string" = type { %"struct.std::__cxx11::basic_string<char>::_Alloc_hider", i64, %union.anon }
%"struct.std::__cxx11::basic_string<char>::_Alloc_hider" = type { ptr }
%union.anon = type { i64, [8 x i8] }
%"struct.std::_Optional_payload_base" = type <{ %"union.std::_Optional_payload_base<std::__cxx11::basic_string<char>>::_Storage", i8, [7 x i8] }>

; Function Attrs: mustprogress nounwind uwtable
define linkonce_odr noundef nonnull align 8 dereferenceable(32) ptr @_ZNKSt22_Optional_payload_baseINSt7__cxx1112basic_stringIcSt11char_traitsIcESaIcEEEE6_M_getEv(ptr noundef nonnull align 8 dereferenceable(33) %this) #5 comdat align 2 {
entry:
  %this.addr = alloca ptr, align 8
  store ptr %this, ptr %this.addr, align 8
  %this1 = load ptr, ptr %this.addr, align 8
  %_M_payload = getelementptr inbounds %"struct.std::_Optional_payload_base", ptr %this1, i32 0, i32 0
  ret ptr %_M_payload
}

; Function Attrs: mustprogress nounwind uwtable
define linkonce_odr noundef nonnull align 8 dereferenceable(32) ptr @_ZNKSt19_Optional_base_implINSt7__cxx1112basic_stringIcSt11char_traitsIcESaIcEEESt14_Optional_baseIS5_Lb0ELb0EEE6_M_getEv(ptr noundef nonnull align 1 dereferenceable(1) %this) #5 comdat align 2 {
entry:
  %this.addr = alloca ptr, align 8
  store ptr %this, ptr %this.addr, align 8
  %this1 = load ptr, ptr %this.addr, align 8
  br label %do.body

do.body:                                          ; preds = %entry
  br label %do.cond

do.cond:                                          ; preds = %do.body
  br label %do.end

do.end:                                           ; preds = %do.cond
  %_M_payload = getelementptr inbounds %"struct.std::_Optional_base", ptr %this1, i32 0, i32 0
  %call = call noundef nonnull align 8 dereferenceable(32) ptr @_ZNKSt22_Optional_payload_baseINSt7__cxx1112basic_stringIcSt11char_traitsIcESaIcEEEE6_M_getEv(ptr noundef nonnull align 8 dereferenceable(33) %_M_payload) #3
  ret ptr %call
}

; Function Attrs: mustprogress nounwind uwtable
define linkonce_odr noundef zeroext i1 @_ZNKSt19_Optional_base_implINSt7__cxx1112basic_stringIcSt11char_traitsIcESaIcEEESt14_Optional_baseIS5_Lb0ELb0EEE13_M_is_engagedEv(ptr noundef nonnull align 1 dereferenceable(1) %this) #5 comdat align 2 {
entry:
  %this.addr = alloca ptr, align 8
  store ptr %this, ptr %this.addr, align 8
  %this1 = load ptr, ptr %this.addr, align 8
  %_M_payload = getelementptr inbounds %"struct.std::_Optional_base", ptr %this1, i32 0, i32 0
  %_M_engaged = getelementptr inbounds %"struct.std::_Optional_payload_base", ptr %_M_payload, i32 0, i32 1
  %0 = load i8, ptr %_M_engaged, align 8
  %tobool = trunc i8 %0 to i1
  ret i1 %tobool
}

; Function Attrs: mustprogress nounwind uwtable
define linkonce_odr noundef zeroext i1 @_ZStltIcSt11char_traitsIcESaIcEEbRKNSt7__cxx1112basic_stringIT_T0_T1_EESA_(ptr noundef nonnull align 8 dereferenceable(32) %__lhs, ptr noundef nonnull align 8 dereferenceable(32) %__rhs) #5 comdat personality ptr @__gxx_personality_v0 {
entry:
  %__lhs.addr = alloca ptr, align 8
  %__rhs.addr = alloca ptr, align 8
  store ptr %__lhs, ptr %__lhs.addr, align 8
  store ptr %__rhs, ptr %__rhs.addr, align 8
  %0 = load ptr, ptr %__lhs.addr, align 8
  %1 = load ptr, ptr %__rhs.addr, align 8
  %call = invoke noundef i32 @_ZNKSt7__cxx1112basic_stringIcSt11char_traitsIcESaIcEE7compareERKS4_(ptr noundef nonnull align 8 dereferenceable(32) %0, ptr noundef nonnull align 8 dereferenceable(32) %1)
          to label %invoke.cont unwind label %terminate.lpad

invoke.cont:                                      ; preds = %entry
  %cmp = icmp slt i32 %call, 0
  ret i1 %cmp

terminate.lpad:                                   ; preds = %entry
  %2 = landingpad { ptr, i32 }
          catch ptr null
  %3 = extractvalue { ptr, i32 } %2, 0
  call void @__clang_call_terminate(ptr %3) #16
  unreachable
}

; Function Attrs: mustprogress nounwind uwtable
define linkonce_odr noundef nonnull align 8 dereferenceable(32) ptr @_ZNKRSt8optionalINSt7__cxx1112basic_stringIcSt11char_traitsIcESaIcEEEEdeEv(ptr noundef nonnull align 8 dereferenceable(40) %this) #5 comdat align 2 {
entry:
  %this.addr = alloca ptr, align 8
  store ptr %this, ptr %this.addr, align 8
  %this1 = load ptr, ptr %this.addr, align 8
  %call = call noundef nonnull align 8 dereferenceable(32) ptr @_ZNKSt19_Optional_base_implINSt7__cxx1112basic_stringIcSt11char_traitsIcESaIcEEESt14_Optional_baseIS5_Lb0ELb0EEE6_M_getEv(ptr noundef nonnull align 1 dereferenceable(1) %this1) #3
  ret ptr %call
}

; Function Attrs: mustprogress nounwind uwtable
define linkonce_odr noundef zeroext i1 @_ZNKSt8optionalINSt7__cxx1112basic_stringIcSt11char_traitsIcESaIcEEEEcvbEv(ptr noundef nonnull align 8 dereferenceable(40) %this) #5 comdat align 2 {
entry:
  %this.addr = alloca ptr, align 8
  store ptr %this, ptr %this.addr, align 8
  %this1 = load ptr, ptr %this.addr, align 8
  %call = call noundef zeroext i1 @_ZNKSt19_Optional_base_implINSt7__cxx1112basic_stringIcSt11char_traitsIcESaIcEEESt14_Optional_baseIS5_Lb0ELb0EEE13_M_is_engagedEv(ptr noundef nonnull align 1 dereferenceable(1) %this1) #3
  ret i1 %call
}

; Function Attrs: mustprogress nounwind uwtable
define linkonce_odr noundef zeroext i1 @_ZStltINSt7__cxx1112basic_stringIcSt11char_traitsIcESaIcEEES5_ENSt9enable_ifIXsr14is_convertibleIDTltclsr3stdE7declvalIRKT_EEclsr3stdE7declvalIRKT0_EEEbEE5valueEbE4typeERKSt8optionalIS7_ERKSG_ISA_E(ptr noundef nonnull align 8 dereferenceable(40) %__lhs, ptr noundef nonnull align 8 dereferenceable(40) %__rhs) #5 comdat {
entry:
  %__lhs.addr = alloca ptr, align 8
  %__rhs.addr = alloca ptr, align 8
  store ptr %__lhs, ptr %__lhs.addr, align 8
  store ptr %__rhs, ptr %__rhs.addr, align 8
  %0 = load ptr, ptr %__rhs.addr, align 8
  %call = call noundef zeroext i1 @_ZNKSt8optionalINSt7__cxx1112basic_stringIcSt11char_traitsIcESaIcEEEEcvbEv(ptr noundef nonnull align 8 dereferenceable(40) %0) #3
  br i1 %call, label %land.rhs, label %land.end

land.rhs:                                         ; preds = %entry
  %1 = load ptr, ptr %__lhs.addr, align 8
  %call1 = call noundef zeroext i1 @_ZNKSt8optionalINSt7__cxx1112basic_stringIcSt11char_traitsIcESaIcEEEEcvbEv(ptr noundef nonnull align 8 dereferenceable(40) %1) #3
  br i1 %call1, label %lor.rhs, label %lor.end

lor.rhs:                                          ; preds = %land.rhs
  %2 = load ptr, ptr %__lhs.addr, align 8
  %call2 = call noundef nonnull align 8 dereferenceable(32) ptr @_ZNKRSt8optionalINSt7__cxx1112basic_stringIcSt11char_traitsIcESaIcEEEEdeEv(ptr noundef nonnull align 8 dereferenceable(40) %2) #3
  %3 = load ptr, ptr %__rhs.addr, align 8
  %call3 = call noundef nonnull align 8 dereferenceable(32) ptr @_ZNKRSt8optionalINSt7__cxx1112basic_stringIcSt11char_traitsIcESaIcEEEEdeEv(ptr noundef nonnull align 8 dereferenceable(40) %3) #3
  %call4 = call noundef zeroext i1 @_ZStltIcSt11char_traitsIcESaIcEEbRKNSt7__cxx1112basic_stringIT_T0_T1_EESA_(ptr noundef nonnull align 8 dereferenceable(32) %call2, ptr noundef nonnull align 8 dereferenceable(32) %call3) #3
  br label %lor.end

lor.end:                                          ; preds = %lor.rhs, %land.rhs
  %4 = phi i1 [ true, %land.rhs ], [ %call4, %lor.rhs ]
  br label %land.end

land.end:                                         ; preds = %lor.end, %entry
  %5 = phi i1 [ false, %entry ], [ %4, %lor.end ]
  ret i1 %5
}

; Function Attrs: mustprogress nounwind uwtable
define linkonce_odr noundef i32 @_ZN9grpc_core12QsortCompareIbEEiRKT_S3_(ptr noundef nonnull align 1 dereferenceable(1) %a, ptr noundef nonnull align 1 dereferenceable(1) %b) #5 comdat {
entry:
  %retval = alloca i32, align 4
  %a.addr = alloca ptr, align 8
  %b.addr = alloca ptr, align 8
  store ptr %a, ptr %a.addr, align 8
  store ptr %b, ptr %b.addr, align 8
  %0 = load ptr, ptr %a.addr, align 8
  %1 = load i8, ptr %0, align 1
  %tobool = trunc i8 %1 to i1
  %conv = zext i1 %tobool to i32
  %2 = load ptr, ptr %b.addr, align 8
  %3 = load i8, ptr %2, align 1
  %tobool1 = trunc i8 %3 to i1
  %conv2 = zext i1 %tobool1 to i32
  %cmp = icmp slt i32 %conv, %conv2
  br i1 %cmp, label %if.then, label %if.end

if.then:                                          ; preds = %entry
  store i32 -1, ptr %retval, align 4
  br label %return

if.end:                                           ; preds = %entry
  %4 = load ptr, ptr %b.addr, align 8
  %5 = load i8, ptr %4, align 1
  %tobool3 = trunc i8 %5 to i1
  %conv4 = zext i1 %tobool3 to i32
  %6 = load ptr, ptr %a.addr, align 8
  %7 = load i8, ptr %6, align 1
  %tobool5 = trunc i8 %7 to i1
  %conv6 = zext i1 %tobool5 to i32
  %cmp7 = icmp slt i32 %conv4, %conv6
  br i1 %cmp7, label %if.then8, label %if.end9

if.then8:                                         ; preds = %if.end
  store i32 1, ptr %retval, align 4
  br label %return

if.end9:                                          ; preds = %if.end
  store i32 0, ptr %retval, align 4
  br label %return

return:                                           ; preds = %if.end9, %if.then8, %if.then
  %8 = load i32, ptr %retval, align 4
  ret i32 %8
}

; Function Attrs: mustprogress uwtable
define linkonce_odr noundef i32 @_ZN9grpc_core12QsortCompareISt8optionalINSt7__cxx1112basic_stringIcSt11char_traitsIcESaIcEEEEEEiRKT_SB_(ptr noundef nonnull align 8 dereferenceable(40) %a, ptr noundef nonnull align 8 dereferenceable(40) %b) #4 comdat {
entry:
  %retval = alloca i32, align 4
  %a.addr = alloca ptr, align 8
  %b.addr = alloca ptr, align 8
  store ptr %a, ptr %a.addr, align 8
  store ptr %b, ptr %b.addr, align 8
  %0 = load ptr, ptr %a.addr, align 8
  %1 = load ptr, ptr %b.addr, align 8
  %call = call noundef zeroext i1 @_ZStltINSt7__cxx1112basic_stringIcSt11char_traitsIcESaIcEEES5_ENSt9enable_ifIXsr14is_convertibleIDTltclsr3stdE7declvalIRKT_EEclsr3stdE7declvalIRKT0_EEEbEE5valueEbE4typeERKSt8optionalIS7_ERKSG_ISA_E(ptr noundef nonnull align 8 dereferenceable(40) %0, ptr noundef nonnull align 8 dereferenceable(40) %1)
  br i1 %call, label %if.then, label %if.end

if.then:                                          ; preds = %entry
  store i32 -1, ptr %retval, align 4
  br label %return

if.end:                                           ; preds = %entry
  %2 = load ptr, ptr %b.addr, align 8
  %3 = load ptr, ptr %a.addr, align 8
  %call1 = call noundef zeroext i1 @_ZStltINSt7__cxx1112basic_stringIcSt11char_traitsIcESaIcEEES5_ENSt9enable_ifIXsr14is_convertibleIDTltclsr3stdE7declvalIRKT_EEclsr3stdE7declvalIRKT0_EEEbEE5valueEbE4typeERKSt8optionalIS7_ERKSG_ISA_E(ptr noundef nonnull align 8 dereferenceable(40) %2, ptr noundef nonnull align 8 dereferenceable(40) %3)
  br i1 %call1, label %if.then2, label %if.end3

if.then2:                                         ; preds = %if.end
  store i32 1, ptr %retval, align 4
  br label %return

if.end3:                                          ; preds = %if.end
  store i32 0, ptr %retval, align 4
  br label %return

return:                                           ; preds = %if.end3, %if.then2, %if.then
  %4 = load i32, ptr %retval, align 4
  ret i32 %4
}

; Function Attrs: mustprogress uwtable
define internal noundef i32 @_ZNK12_GLOBAL__N_136grpc_fake_channel_security_connector3cmpEPK23grpc_security_connector(ptr noundef nonnull align 8 dereferenceable(152) %this, ptr noundef %other_sc) unnamed_addr #4 align 2 {
entry:
  %retval = alloca i32, align 4
  %this.addr = alloca ptr, align 8
  %other_sc.addr = alloca ptr, align 8
  %other = alloca ptr, align 8
  %c = alloca i32, align 4
  store ptr %this, ptr %this.addr, align 8
  store ptr %other_sc, ptr %other_sc.addr, align 8
  %this1 = load ptr, ptr %this.addr, align 8
  %0 = load ptr, ptr %other_sc.addr, align 8
  store ptr %0, ptr %other, align 8
  %1 = load ptr, ptr %other, align 8
  %call = call noundef i32 @_ZNK31grpc_channel_security_connector30channel_security_connector_cmpEPKS_(ptr noundef nonnull align 8 dereferenceable(56) %this1, ptr noundef %1)
  store i32 %call, ptr %c, align 4
  %2 = load i32, ptr %c, align 4
  %cmp = icmp ne i32 %2, 0
  br i1 %cmp, label %if.then, label %if.end

if.then:                                          ; preds = %entry
  %3 = load i32, ptr %c, align 4
  store i32 %3, ptr %retval, align 4
  br label %return

if.end:                                           ; preds = %entry
  %target_ = getelementptr inbounds %"class.(anonymous namespace)::grpc_fake_channel_security_connector", ptr %this1, i32 0, i32 1
  %4 = load ptr, ptr %target_, align 8
  %5 = load ptr, ptr %other, align 8
  %target_2 = getelementptr inbounds %"class.(anonymous namespace)::grpc_fake_channel_security_connector", ptr %5, i32 0, i32 1
  %6 = load ptr, ptr %target_2, align 8
  %call3 = call i32 @strcmp(ptr noundef %4, ptr noundef %6) #17
  store i32 %call3, ptr %c, align 4
  %7 = load i32, ptr %c, align 4
  %cmp4 = icmp ne i32 %7, 0
  br i1 %cmp4, label %if.then5, label %if.end6

if.then5:                                         ; preds = %if.end
  %8 = load i32, ptr %c, align 4
  store i32 %8, ptr %retval, align 4
  br label %return

if.end6:                                          ; preds = %if.end
  %expected_targets_ = getelementptr inbounds %"class.(anonymous namespace)::grpc_fake_channel_security_connector", ptr %this1, i32 0, i32 2
  %9 = load ptr, ptr %other, align 8
  %expected_targets_7 = getelementptr inbounds %"class.(anonymous namespace)::grpc_fake_channel_security_connector", ptr %9, i32 0, i32 2
  %call8 = call noundef i32 @_ZN9grpc_core12QsortCompareISt8optionalINSt7__cxx1112basic_stringIcSt11char_traitsIcESaIcEEEEEEiRKT_SB_(ptr noundef nonnull align 8 dereferenceable(40) %expected_targets_, ptr noundef nonnull align 8 dereferenceable(40) %expected_targets_7)
  store i32 %call8, ptr %c, align 4
  %10 = load i32, ptr %c, align 4
  %cmp9 = icmp ne i32 %10, 0
  br i1 %cmp9, label %if.then10, label %if.end11

if.then10:                                        ; preds = %if.end6
  %11 = load i32, ptr %c, align 4
  store i32 %11, ptr %retval, align 4
  br label %return

if.end11:                                         ; preds = %if.end6
  %is_lb_channel_ = getelementptr inbounds %"class.(anonymous namespace)::grpc_fake_channel_security_connector", ptr %this1, i32 0, i32 3
  %12 = load ptr, ptr %other, align 8
  %is_lb_channel_12 = getelementptr inbounds %"class.(anonymous namespace)::grpc_fake_channel_security_connector", ptr %12, i32 0, i32 3
  %call13 = call noundef i32 @_ZN9grpc_core12QsortCompareIbEEiRKT_S3_(ptr noundef nonnull align 1 dereferenceable(1) %is_lb_channel_, ptr noundef nonnull align 1 dereferenceable(1) %is_lb_channel_12)
  store i32 %call13, ptr %retval, align 4
  br label %return

return:                                           ; preds = %if.end11, %if.then10, %if.then5, %if.then
  %13 = load i32, ptr %retval, align 4
  ret i32 %13
}