; Function Attrs: mustprogress uwtable
define internal noundef i32 @_ZNK12_GLOBAL__N_136grpc_fake_channel_security_connector3cmpEPK23grpc_security_connector(ptr noundef nonnull align 8 dereferenceable(152) %this, ptr noundef %other_sc) unnamed_addr #3 align 2 personality ptr @__gxx_personality_v0 {
entry:
  %call = tail call noundef i32 @_ZNK31grpc_channel_security_connector30channel_security_connector_cmpEPKS_(ptr noundef nonnull align 8 dereferenceable(56) %this, ptr noundef %other_sc)
  %cmp.not = icmp eq i32 %call, 0
  br i1 %cmp.not, label %if.end, label %return

if.end:                                           ; preds = %entry
  %target_ = getelementptr inbounds i8, ptr %this, i64 56
  %0 = load ptr, ptr %target_, align 8
  %target_2 = getelementptr inbounds i8, ptr %other_sc, i64 56
  %1 = load ptr, ptr %target_2, align 8
  %call3 = tail call i32 @strcmp(ptr noundef nonnull dereferenceable(1) %0, ptr noundef nonnull dereferenceable(1) %1) #22
  %cmp4.not = icmp eq i32 %call3, 0
  br i1 %cmp4.not, label %if.end6, label %return

if.end6:                                          ; preds = %if.end
  %expected_targets_ = getelementptr inbounds i8, ptr %this, i64 64
  %expected_targets_7 = getelementptr inbounds i8, ptr %other_sc, i64 64
  %_M_engaged.i.i.i.i = getelementptr inbounds i8, ptr %other_sc, i64 96
  %2 = load i8, ptr %_M_engaged.i.i.i.i, align 8
  %3 = and i8 %2, 1
  %tobool.i.i.not.i.i = icmp eq i8 %3, 0
  br i1 %tobool.i.i.not.i.i, label %if.end.i, label %land.rhs.i.i

land.rhs.i.i:                                     ; preds = %if.end6
  %_M_engaged.i.i3.i.i = getelementptr inbounds i8, ptr %this, i64 96
  %4 = load i8, ptr %_M_engaged.i.i3.i.i, align 8
  %5 = and i8 %4, 1
  %tobool.i.i4.not.i.i = icmp eq i8 %5, 0
  br i1 %tobool.i.i4.not.i.i, label %return, label %lor.rhs.i.i

lor.rhs.i.i:                                      ; preds = %land.rhs.i.i
  %call.i.i.i = invoke noundef i32 @_ZNKSt7__cxx1112basic_stringIcSt11char_traitsIcESaIcEE7compareERKS4_(ptr noundef nonnull align 8 dereferenceable(32) %expected_targets_, ptr noundef nonnull align 8 dereferenceable(32) %expected_targets_7)
          to label %_ZStltINSt7__cxx1112basic_stringIcSt11char_traitsIcESaIcEEES5_ENSt9enable_ifIXsr14is_convertibleIDTltclsr3stdE7declvalIRKT_EEclsr3stdE7declvalIRKT0_EEEbEE5valueEbE4typeERKSt8optionalIS7_ERKSG_ISA_E.exit.i unwind label %terminate.lpad.i.i.i

terminate.lpad.i.i.i:                             ; preds = %lor.rhs.i.i
  %6 = landingpad { ptr, i32 }
          catch ptr null
  %7 = extractvalue { ptr, i32 } %6, 0
  tail call void @__clang_call_terminate(ptr %7) #21
  unreachable

_ZStltINSt7__cxx1112basic_stringIcSt11char_traitsIcESaIcEEES5_ENSt9enable_ifIXsr14is_convertibleIDTltclsr3stdE7declvalIRKT_EEclsr3stdE7declvalIRKT0_EEEbEE5valueEbE4typeERKSt8optionalIS7_ERKSG_ISA_E.exit.i: ; preds = %lor.rhs.i.i
  %cmp.i.i.i = icmp slt i32 %call.i.i.i, 0
  br i1 %cmp.i.i.i, label %return, label %if.end.i

if.end.i:                                         ; preds = %_ZStltINSt7__cxx1112basic_stringIcSt11char_traitsIcESaIcEEES5_ENSt9enable_ifIXsr14is_convertibleIDTltclsr3stdE7declvalIRKT_EEclsr3stdE7declvalIRKT0_EEEbEE5valueEbE4typeERKSt8optionalIS7_ERKSG_ISA_E.exit.i, %if.end6
  %_M_engaged.i.i.i3.i = getelementptr inbounds i8, ptr %this, i64 96
  %8 = load i8, ptr %_M_engaged.i.i.i3.i, align 8
  %9 = and i8 %8, 1
  %tobool.i.i.not.i4.i = icmp eq i8 %9, 0
  br i1 %tobool.i.i.not.i4.i, label %if.end11, label %land.rhs.i5.i

land.rhs.i5.i:                                    ; preds = %if.end.i
  %10 = load i8, ptr %_M_engaged.i.i.i.i, align 8
  %11 = and i8 %10, 1
  %tobool.i.i4.not.i7.i = icmp eq i8 %11, 0
  br i1 %tobool.i.i4.not.i7.i, label %return, label %lor.rhs.i8.i

lor.rhs.i8.i:                                     ; preds = %land.rhs.i5.i
  %call.i.i9.i = invoke noundef i32 @_ZNKSt7__cxx1112basic_stringIcSt11char_traitsIcESaIcEE7compareERKS4_(ptr noundef nonnull align 8 dereferenceable(32) %expected_targets_7, ptr noundef nonnull align 8 dereferenceable(32) %expected_targets_)
          to label %_ZStltINSt7__cxx1112basic_stringIcSt11char_traitsIcESaIcEEES5_ENSt9enable_ifIXsr14is_convertibleIDTltclsr3stdE7declvalIRKT_EEclsr3stdE7declvalIRKT0_EEEbEE5valueEbE4typeERKSt8optionalIS7_ERKSG_ISA_E.exit13.i unwind label %terminate.lpad.i.i10.i

terminate.lpad.i.i10.i:                           ; preds = %lor.rhs.i8.i
  %12 = landingpad { ptr, i32 }
          catch ptr null
  %13 = extractvalue { ptr, i32 } %12, 0
  tail call void @__clang_call_terminate(ptr %13) #21
  unreachable

_ZStltINSt7__cxx1112basic_stringIcSt11char_traitsIcESaIcEEES5_ENSt9enable_ifIXsr14is_convertibleIDTltclsr3stdE7declvalIRKT_EEclsr3stdE7declvalIRKT0_EEEbEE5valueEbE4typeERKSt8optionalIS7_ERKSG_ISA_E.exit13.i: ; preds = %lor.rhs.i8.i
  %cmp.i.i12.i = icmp slt i32 %call.i.i9.i, 0
  br i1 %cmp.i.i12.i, label %return, label %if.end11

if.end11:                                         ; preds = %_ZStltINSt7__cxx1112basic_stringIcSt11char_traitsIcESaIcEEES5_ENSt9enable_ifIXsr14is_convertibleIDTltclsr3stdE7declvalIRKT_EEclsr3stdE7declvalIRKT0_EEEbEE5valueEbE4typeERKSt8optionalIS7_ERKSG_ISA_E.exit13.i, %if.end.i
  %is_lb_channel_ = getelementptr inbounds i8, ptr %this, i64 104
  %is_lb_channel_12 = getelementptr inbounds i8, ptr %other_sc, i64 104
  %14 = load i8, ptr %is_lb_channel_, align 8
  %15 = and i8 %14, 1
  %16 = load i8, ptr %is_lb_channel_12, align 1
  %17 = and i8 %16, 1
  %cmp.i = icmp ult i8 %15, %17
  %cmp7.i = icmp ult i8 %17, %15
  %..i = zext i1 %cmp7.i to i32
  %retval.0.i9 = select i1 %cmp.i, i32 -1, i32 %..i
  br label %return

return:                                           ; preds = %land.rhs.i5.i, %_ZStltINSt7__cxx1112basic_stringIcSt11char_traitsIcESaIcEEES5_ENSt9enable_ifIXsr14is_convertibleIDTltclsr3stdE7declvalIRKT_EEclsr3stdE7declvalIRKT0_EEEbEE5valueEbE4typeERKSt8optionalIS7_ERKSG_ISA_E.exit13.i, %land.rhs.i.i, %_ZStltINSt7__cxx1112basic_stringIcSt11char_traitsIcESaIcEEES5_ENSt9enable_ifIXsr14is_convertibleIDTltclsr3stdE7declvalIRKT_EEclsr3stdE7declvalIRKT0_EEEbEE5valueEbE4typeERKSt8optionalIS7_ERKSG_ISA_E.exit.i, %if.end, %entry, %if.end11
  %retval.0 = phi i32 [ %retval.0.i9, %if.end11 ], [ %call, %entry ], [ %call3, %if.end ], [ -1, %land.rhs.i.i ], [ -1, %_ZStltINSt7__cxx1112basic_stringIcSt11char_traitsIcESaIcEEES5_ENSt9enable_ifIXsr14is_convertibleIDTltclsr3stdE7declvalIRKT_EEclsr3stdE7declvalIRKT0_EEEbEE5valueEbE4typeERKSt8optionalIS7_ERKSG_ISA_E.exit.i ], [ 1, %_ZStltINSt7__cxx1112basic_stringIcSt11char_traitsIcESaIcEEES5_ENSt9enable_ifIXsr14is_convertibleIDTltclsr3stdE7declvalIRKT_EEclsr3stdE7declvalIRKT0_EEEbEE5valueEbE4typeERKSt8optionalIS7_ERKSG_ISA_E.exit13.i ], [ 1, %land.rhs.i5.i ]
  ret i32 %retval.0
}